target datalayout = "e-m:e-p270:32:32-p271:32:32-p272:64:64-i64:64-i128:128-f80:128-n8:16:32:64-S128"
target triple = "x86_64-pc-linux-gnu"

%struct._Py_DebugOffsets = type { [8 x i8], i64, i64, %struct._runtime_state, %struct._interpreter_state, %struct._thread_state, %struct._interpreter_frame, %struct._code_object, %struct._pyobject, %struct._type_object, %struct._tuple_object, %struct._list_object, %struct._set_object, %struct._dict_object, %struct._float_object, %struct._long_object, %struct._bytes_object, %struct._unicode_object, %struct._gc, %struct._gen_object }
%struct._runtime_state = type { i64, i64, i64 }
%struct._interpreter_state = type { i64, i64, i64, i64, i64, i64, i64, i64, i64, i64, i64, i64, i64 }
%struct._thread_state = type { i64, i64, i64, i64, i64, i64, i64, i64, i64 }
%struct._interpreter_frame = type { i64, i64, i64, i64, i64, i64, i64 }
%struct._code_object = type { i64, i64, i64, i64, i64, i64, i64, i64, i64, i64 }
%struct._pyobject = type { i64, i64 }
%struct._type_object = type { i64, i64, i64, i64 }
%struct._tuple_object = type { i64, i64, i64 }
%struct._list_object = type { i64, i64, i64 }
%struct._set_object = type { i64, i64, i64, i64 }
%struct._dict_object = type { i64, i64, i64 }
%struct._float_object = type { i64, i64 }
%struct._long_object = type { i64, i64, i64 }
%struct._bytes_object = type { i64, i64, i64 }
%struct._unicode_object = type { i64, i64, i64, i64 }
%struct._gc = type { i64, i64 }
%struct._gen_object = type { i64, i64, i64, i64 }
%struct._Py_AsyncioModuleDebugOffsets = type { %struct._asyncio_task_object, %struct._asyncio_thread_state }
%struct._asyncio_task_object = type { i64, i64, i64, i64, i64, i64 }
%struct._asyncio_thread_state = type { i64, i64, i64 }
%struct.iovec = type { ptr, i64 }

@PyExc_OSError = external global ptr, align 8
@PyExc_RuntimeError = external global ptr, align 8
@.str.16 = private unnamed_addr constant [27 x i8] c"No interpreter state found\00", align 1

; Function Attrs: inlinehint nounwind uwtable
define internal i32 @read_ptr(i32 noundef %0, i64 noundef %1, ptr noundef %2) #6 {
  %4 = alloca i32, align 4
  %5 = alloca i32, align 4
  %6 = alloca i64, align 8
  %7 = alloca ptr, align 8
  %8 = alloca i32, align 4
  %9 = alloca i32, align 4
  store i32 %0, ptr %5, align 4, !tbaa !8
  store i64 %1, ptr %6, align 8, !tbaa !11
  store ptr %2, ptr %7, align 8, !tbaa !39
  call void @llvm.lifetime.start.p0(i64 4, ptr %8) #7
  %10 = load i32, ptr %5, align 4, !tbaa !8
  %11 = load i64, ptr %6, align 8, !tbaa !11
  %12 = load ptr, ptr %7, align 8, !tbaa !39
  %13 = call i64 @read_memory(i32 noundef %10, i64 noundef %11, i64 noundef 8, ptr noundef %12)
  %14 = trunc i64 %13 to i32
  store i32 %14, ptr %8, align 4, !tbaa !8
  %15 = load i32, ptr %8, align 4, !tbaa !8
  %16 = icmp slt i32 %15, 0
  br i1 %16, label %17, label %18

17:                                               ; preds = %3
  store i32 -1, ptr %4, align 4
  store i32 1, ptr %9, align 4
  br label %19

18:                                               ; preds = %3
  store i32 0, ptr %4, align 4
  store i32 1, ptr %9, align 4
  br label %19

19:                                               ; preds = %18, %17
  call void @llvm.lifetime.end.p0(i64 4, ptr %8) #7
  %20 = load i32, ptr %4, align 4
  ret i32 %20
}

; Function Attrs: nounwind uwtable
define internal i32 @read_py_ptr(i32 noundef %0, i64 noundef %1, ptr noundef %2) #0 {
  %4 = alloca i32, align 4
  %5 = alloca i32, align 4
  %6 = alloca i64, align 8
  %7 = alloca ptr, align 8
  store i32 %0, ptr %5, align 4, !tbaa !8
  store i64 %1, ptr %6, align 8, !tbaa !11
  store ptr %2, ptr %7, align 8, !tbaa !39
  %8 = load i32, ptr %5, align 4, !tbaa !8
  %9 = load i64, ptr %6, align 8, !tbaa !11
  %10 = load ptr, ptr %7, align 8, !tbaa !39
  %11 = call i32 @read_ptr(i32 noundef %8, i64 noundef %9, ptr noundef %10)
  %12 = icmp ne i32 %11, 0
  br i1 %12, label %13, label %14

13:                                               ; preds = %3
  store i32 -1, ptr %4, align 4
  br label %18

14:                                               ; preds = %3
  %15 = load ptr, ptr %7, align 8, !tbaa !39
  %16 = load i64, ptr %15, align 8, !tbaa !11
  %17 = and i64 %16, -2
  store i64 %17, ptr %15, align 8, !tbaa !11
  store i32 0, ptr %4, align 4
  br label %18

18:                                               ; preds = %14, %13
  %19 = load i32, ptr %4, align 4
  ret i32 %19
}

; Function Attrs: nounwind uwtable
define internal i64 @read_memory(i32 noundef %0, i64 noundef %1, i64 noundef %2, ptr noundef %3) #0 {
  %5 = alloca i64, align 8
  %6 = alloca i32, align 4
  %7 = alloca i64, align 8
  %8 = alloca i64, align 8
  %9 = alloca ptr, align 8
  %10 = alloca i64, align 8
  %11 = alloca [1 x %struct.iovec], align 16
  %12 = alloca [1 x %struct.iovec], align 16
  %13 = alloca i64, align 8
  %14 = alloca i64, align 8
  %15 = alloca i32, align 4
  store i32 %0, ptr %6, align 4, !tbaa !8
  store i64 %1, ptr %7, align 8, !tbaa !11
  store i64 %2, ptr %8, align 8, !tbaa !11
  store ptr %3, ptr %9, align 8, !tbaa !51
  call void @llvm.lifetime.start.p0(i64 8, ptr %10) #7
  store i64 0, ptr %10, align 8, !tbaa !11
  call void @llvm.lifetime.start.p0(i64 16, ptr %11) #7
  call void @llvm.lifetime.start.p0(i64 16, ptr %12) #7
  call void @llvm.lifetime.start.p0(i64 8, ptr %13) #7
  store i64 0, ptr %13, align 8, !tbaa !11
  call void @llvm.lifetime.start.p0(i64 8, ptr %14) #7
  store i64 0, ptr %14, align 8, !tbaa !11
  br label %16

16:                                               ; preds = %51, %4
  %17 = load ptr, ptr %9, align 8, !tbaa !51
  %18 = load i64, ptr %13, align 8, !tbaa !11
  %19 = getelementptr i8, ptr %17, i64 %18
  %20 = getelementptr [1 x %struct.iovec], ptr %11, i64 0, i64 0
  %21 = getelementptr inbounds nuw %struct.iovec, ptr %20, i32 0, i32 0
  store ptr %19, ptr %21, align 16, !tbaa !75
  %22 = load i64, ptr %8, align 8, !tbaa !11
  %23 = load i64, ptr %13, align 8, !tbaa !11
  %24 = sub i64 %22, %23
  %25 = getelementptr [1 x %struct.iovec], ptr %11, i64 0, i64 0
  %26 = getelementptr inbounds nuw %struct.iovec, ptr %25, i32 0, i32 1
  store i64 %24, ptr %26, align 8, !tbaa !77
  %27 = load i64, ptr %7, align 8, !tbaa !11
  %28 = load i64, ptr %13, align 8, !tbaa !11
  %29 = add i64 %27, %28
  %30 = inttoptr i64 %29 to ptr
  %31 = getelementptr [1 x %struct.iovec], ptr %12, i64 0, i64 0
  %32 = getelementptr inbounds nuw %struct.iovec, ptr %31, i32 0, i32 0
  store ptr %30, ptr %32, align 16, !tbaa !75
  %33 = load i64, ptr %8, align 8, !tbaa !11
  %34 = load i64, ptr %13, align 8, !tbaa !11
  %35 = sub i64 %33, %34
  %36 = getelementptr [1 x %struct.iovec], ptr %12, i64 0, i64 0
  %37 = getelementptr inbounds nuw %struct.iovec, ptr %36, i32 0, i32 1
  store i64 %35, ptr %37, align 8, !tbaa !77
  %38 = load i32, ptr %6, align 4, !tbaa !8
  %39 = getelementptr inbounds [1 x %struct.iovec], ptr %11, i64 0, i64 0
  %40 = getelementptr inbounds [1 x %struct.iovec], ptr %12, i64 0, i64 0
  %41 = call i64 @process_vm_readv(i32 noundef %38, ptr noundef %39, i64 noundef 1, ptr noundef %40, i64 noundef 1, i64 noundef 0) #7
  store i64 %41, ptr %14, align 8, !tbaa !11
  %42 = load i64, ptr %14, align 8, !tbaa !11
  %43 = icmp slt i64 %42, 0
  br i1 %43, label %44, label %47

44:                                               ; preds = %16
  %45 = load ptr, ptr @PyExc_OSError, align 8, !tbaa !3
  %46 = call ptr @PyErr_SetFromErrno(ptr noundef %45)
  store i64 -1, ptr %5, align 8
  store i32 1, ptr %15, align 4
  br label %60

47:                                               ; preds = %16
  %48 = load i64, ptr %14, align 8, !tbaa !11
  %49 = load i64, ptr %13, align 8, !tbaa !11
  %50 = add i64 %49, %48
  store i64 %50, ptr %13, align 8, !tbaa !11
  br label %51

51:                                               ; preds = %47
  %52 = load i64, ptr %14, align 8, !tbaa !11
  %53 = getelementptr [1 x %struct.iovec], ptr %11, i64 0, i64 0
  %54 = getelementptr inbounds nuw %struct.iovec, ptr %53, i32 0, i32 1
  %55 = load i64, ptr %54, align 8, !tbaa !77
  %56 = icmp ne i64 %52, %55
  br i1 %56, label %16, label %57, !llvm.loop !78

57:                                               ; preds = %51
  %58 = load i64, ptr %13, align 8, !tbaa !11
  store i64 %58, ptr %10, align 8, !tbaa !11
  %59 = load i64, ptr %10, align 8, !tbaa !11
  store i64 %59, ptr %5, align 8
  store i32 1, ptr %15, align 4
  br label %60

60:                                               ; preds = %57, %44
  call void @llvm.lifetime.end.p0(i64 8, ptr %14) #7
  call void @llvm.lifetime.end.p0(i64 8, ptr %13) #7
  call void @llvm.lifetime.end.p0(i64 16, ptr %12) #7
  call void @llvm.lifetime.end.p0(i64 16, ptr %11) #7
  call void @llvm.lifetime.end.p0(i64 8, ptr %10) #7
  %61 = load i64, ptr %5, align 8
  ret i64 %61
}

; Function Attrs: nounwind uwtable
define internal i32 @find_running_task(i32 noundef %0, i64 noundef %1, ptr noundef %2, ptr noundef %3, ptr noundef %4) #0 {
  %6 = alloca i32, align 4
  %7 = alloca i32, align 4
  %8 = alloca i64, align 8
  %9 = alloca ptr, align 8
  %10 = alloca ptr, align 8
  %11 = alloca ptr, align 8
  %12 = alloca i64, align 8
  %13 = alloca i64, align 8
  %14 = alloca i32, align 4
  %15 = alloca i32, align 4
  %16 = alloca i64, align 8
  %17 = alloca i64, align 8
  %18 = alloca i32, align 4
  store i32 %0, ptr %7, align 4, !tbaa !8
  store i64 %1, ptr %8, align 8, !tbaa !11
  store ptr %2, ptr %9, align 8, !tbaa !41
  store ptr %3, ptr %10, align 8, !tbaa !82
  store ptr %4, ptr %11, align 8, !tbaa !39
  %19 = load ptr, ptr %11, align 8, !tbaa !39
  store i64 0, ptr %19, align 8, !tbaa !11
  call void @llvm.lifetime.start.p0(i64 8, ptr %12) #7
  %20 = load ptr, ptr %9, align 8, !tbaa !41
  %21 = getelementptr inbounds nuw %struct._Py_DebugOffsets, ptr %20, i32 0, i32 3
  %22 = getelementptr inbounds nuw %struct._runtime_state, ptr %21, i32 0, i32 2
  %23 = load i64, ptr %22, align 8, !tbaa !43
  store i64 %23, ptr %12, align 8, !tbaa !11
  call void @llvm.lifetime.start.p0(i64 8, ptr %13) #7
  call void @llvm.lifetime.start.p0(i64 4, ptr %14) #7
  %24 = load i32, ptr %7, align 4, !tbaa !8
  %25 = load i64, ptr %8, align 8, !tbaa !11
  %26 = load i64, ptr %12, align 8, !tbaa !11
  %27 = add i64 %25, %26
  %28 = call i64 @read_memory(i32 noundef %24, i64 noundef %27, i64 noundef 8, ptr noundef %13)
  %29 = trunc i64 %28 to i32
  store i32 %29, ptr %14, align 4, !tbaa !8
  %30 = load i32, ptr %14, align 4, !tbaa !8
  %31 = icmp slt i32 %30, 0
  br i1 %31, label %32, label %33

32:                                               ; preds = %5
  store i32 -1, ptr %6, align 4
  store i32 1, ptr %15, align 4
  br label %90

33:                                               ; preds = %5
  %34 = load i64, ptr %13, align 8, !tbaa !11
  %35 = icmp eq i64 %34, 0
  br i1 %35, label %36, label %38

36:                                               ; preds = %33
  %37 = load ptr, ptr @PyExc_RuntimeError, align 8, !tbaa !3
  call void @PyErr_SetString(ptr noundef %37, ptr noundef @.str.16)
  store i32 -1, ptr %6, align 4
  store i32 1, ptr %15, align 4
  br label %90

38:                                               ; preds = %33
  call void @llvm.lifetime.start.p0(i64 8, ptr %16) #7
  %39 = load i32, ptr %7, align 4, !tbaa !8
  %40 = load i64, ptr %13, align 8, !tbaa !11
  %41 = load ptr, ptr %9, align 8, !tbaa !41
  %42 = getelementptr inbounds nuw %struct._Py_DebugOffsets, ptr %41, i32 0, i32 4
  %43 = getelementptr inbounds nuw %struct._interpreter_state, ptr %42, i32 0, i32 3
  %44 = load i64, ptr %43, align 8, !tbaa !44
  %45 = add i64 %40, %44
  %46 = call i64 @read_memory(i32 noundef %39, i64 noundef %45, i64 noundef 8, ptr noundef %16)
  %47 = trunc i64 %46 to i32
  store i32 %47, ptr %14, align 4, !tbaa !8
  %48 = load i32, ptr %14, align 4, !tbaa !8
  %49 = icmp slt i32 %48, 0
  br i1 %49, label %50, label %51

50:                                               ; preds = %38
  store i32 -1, ptr %6, align 4
  store i32 1, ptr %15, align 4
  br label %89

51:                                               ; preds = %38
  call void @llvm.lifetime.start.p0(i64 8, ptr %17) #7
  %52 = load i64, ptr %16, align 8, !tbaa !11
  %53 = inttoptr i64 %52 to ptr
  %54 = icmp eq ptr %53, null
  br i1 %54, label %55, label %56

55:                                               ; preds = %51
  store i32 0, ptr %6, align 4
  store i32 1, ptr %15, align 4
  br label %88

56:                                               ; preds = %51
  %57 = load i32, ptr %7, align 4, !tbaa !8
  %58 = load i64, ptr %16, align 8, !tbaa !11
  %59 = load ptr, ptr %10, align 8, !tbaa !82
  %60 = getelementptr inbounds nuw %struct._Py_AsyncioModuleDebugOffsets, ptr %59, i32 0, i32 1
  %61 = getelementptr inbounds nuw %struct._asyncio_thread_state, ptr %60, i32 0, i32 1
  %62 = load i64, ptr %61, align 8, !tbaa !84
  %63 = add i64 %58, %62
  %64 = call i32 @read_py_ptr(i32 noundef %57, i64 noundef %63, ptr noundef %17)
  store i32 %64, ptr %14, align 4, !tbaa !8
  %65 = load i32, ptr %14, align 4, !tbaa !8
  %66 = icmp eq i32 %65, -1
  br i1 %66, label %67, label %68

67:                                               ; preds = %56
  store i32 -1, ptr %6, align 4
  store i32 1, ptr %15, align 4
  br label %88

68:                                               ; preds = %56
  %69 = load i64, ptr %17, align 8, !tbaa !11
  %70 = inttoptr i64 %69 to ptr
  %71 = icmp eq ptr %70, null
  br i1 %71, label %72, label %73

72:                                               ; preds = %68
  store i32 0, ptr %6, align 4
  store i32 1, ptr %15, align 4
  br label %88

73:                                               ; preds = %68
  call void @llvm.lifetime.start.p0(i64 4, ptr %18) #7
  %74 = load i32, ptr %7, align 4, !tbaa !8
  %75 = load i64, ptr %16, align 8, !tbaa !11
  %76 = load ptr, ptr %10, align 8, !tbaa !82
  %77 = getelementptr inbounds nuw %struct._Py_AsyncioModuleDebugOffsets, ptr %76, i32 0, i32 1
  %78 = getelementptr inbounds nuw %struct._asyncio_thread_state, ptr %77, i32 0, i32 2
  %79 = load i64, ptr %78, align 8, !tbaa !85
  %80 = add i64 %75, %79
  %81 = load ptr, ptr %11, align 8, !tbaa !39
  %82 = call i32 @read_ptr(i32 noundef %74, i64 noundef %80, ptr noundef %81)
  store i32 %82, ptr %18, align 4, !tbaa !8
  %83 = load i32, ptr %18, align 4, !tbaa !8
  %84 = icmp ne i32 %83, 0
  br i1 %84, label %85, label %86

85:                                               ; preds = %73
  store i32 -1, ptr %6, align 4
  store i32 1, ptr %15, align 4
  br label %87

86:                                               ; preds = %73
  store i32 0, ptr %6, align 4
  store i32 1, ptr %15, align 4
  br label %87

87:                                               ; preds = %86, %85
  call void @llvm.lifetime.end.p0(i64 4, ptr %18) #7
  br label %88

88:                                               ; preds = %87, %72, %67, %55
  call void @llvm.lifetime.end.p0(i64 8, ptr %17) #7
  br label %89

89:                                               ; preds = %88, %50
  call void @llvm.lifetime.end.p0(i64 8, ptr %16) #7
  br label %90

90:                                               ; preds = %89, %36, %32
  call void @llvm.lifetime.end.p0(i64 4, ptr %14) #7
  call void @llvm.lifetime.end.p0(i64 8, ptr %13) #7
  call void @llvm.lifetime.end.p0(i64 8, ptr %12) #7
  %91 = load i32, ptr %6, align 4
  ret i32 %91
}