; Function Attrs: nounwind uwtable
define internal fastcc range(i32 -1, 1) i32 @find_running_task(i32 noundef %0, i64 noundef %1, ptr noundef nonnull readonly captures(none) %2, ptr noundef nonnull readonly captures(none) %3, ptr noundef nonnull initializes((0, 8)) %4) unnamed_addr #0 {
  %6 = alloca [1 x %struct.iovec], align 16
  %7 = alloca [1 x %struct.iovec], align 16
  %8 = alloca [1 x %struct.iovec], align 16
  %9 = alloca [1 x %struct.iovec], align 16
  %10 = alloca [1 x %struct.iovec], align 16
  %11 = alloca [1 x %struct.iovec], align 16
  %12 = alloca [1 x %struct.iovec], align 16
  %13 = alloca [1 x %struct.iovec], align 16
  %14 = alloca i64, align 8
  %15 = alloca i64, align 8
  %16 = alloca i64, align 8
  store i64 0, ptr %4, align 8, !tbaa !8
  %17 = getelementptr inbounds nuw i8, ptr %2, i64 40
  %18 = load i64, ptr %17, align 8, !tbaa !47
  call void @llvm.lifetime.start.p0(i64 8, ptr nonnull %14) #9
  %19 = add i64 %18, %1
  call void @llvm.lifetime.start.p0(i64 16, ptr nonnull %12) #9
  call void @llvm.lifetime.start.p0(i64 16, ptr nonnull %13) #9
  %20 = getelementptr inbounds nuw i8, ptr %12, i64 8
  %21 = getelementptr inbounds nuw i8, ptr %13, i64 8
  br label %22

22:                                               ; preds = %31, %5
  %.0.i = phi i64 [ 0, %5 ], [ %32, %31 ]
  %23 = getelementptr i8, ptr %14, i64 %.0.i
  store ptr %23, ptr %12, align 16, !tbaa !29
  %24 = sub i64 8, %.0.i
  store i64 %24, ptr %20, align 8, !tbaa !32
  %25 = add i64 %19, %.0.i
  %26 = inttoptr i64 %25 to ptr
  store ptr %26, ptr %13, align 16, !tbaa !29
  store i64 %24, ptr %21, align 8, !tbaa !32
  %27 = call i64 @process_vm_readv(i32 noundef %0, ptr noundef nonnull %12, i64 noundef 1, ptr noundef nonnull %13, i64 noundef 1, i64 noundef 0) #9
  %28 = icmp slt i64 %27, 0
  br i1 %28, label %read_memory.exit.thread, label %31

read_memory.exit.thread:                          ; preds = %22
  %29 = load ptr, ptr @PyExc_OSError, align 8, !tbaa !33
  %30 = call ptr @PyErr_SetFromErrno(ptr noundef %29) #9
  call void @llvm.lifetime.end.p0(i64 16, ptr nonnull %13) #9
  call void @llvm.lifetime.end.p0(i64 16, ptr nonnull %12) #9
  br label %104

31:                                               ; preds = %22
  %32 = add i64 %27, %.0.i
  %33 = load i64, ptr %20, align 8, !tbaa !32
  %.not.i = icmp eq i64 %27, %33
  br i1 %.not.i, label %read_memory.exit, label %22, !llvm.loop !35

read_memory.exit:                                 ; preds = %31
  call void @llvm.lifetime.end.p0(i64 16, ptr nonnull %13) #9
  call void @llvm.lifetime.end.p0(i64 16, ptr nonnull %12) #9
  %34 = and i64 %32, 2147483648
  %.not = icmp eq i64 %34, 0
  br i1 %.not, label %35, label %104

35:                                               ; preds = %read_memory.exit
  %36 = load i64, ptr %14, align 8, !tbaa !8
  %37 = icmp eq i64 %36, 0
  br i1 %37, label %38, label %40

38:                                               ; preds = %35
  %39 = load ptr, ptr @PyExc_RuntimeError, align 8, !tbaa !33
  call void @PyErr_SetString(ptr noundef %39, ptr noundef nonnull @.str.16) #9
  br label %104

40:                                               ; preds = %35
  call void @llvm.lifetime.start.p0(i64 8, ptr nonnull %15) #9
  %41 = getelementptr inbounds nuw i8, ptr %2, i64 72
  %42 = load i64, ptr %41, align 8, !tbaa !48
  %43 = add i64 %42, %36
  call void @llvm.lifetime.start.p0(i64 16, ptr nonnull %10) #9
  call void @llvm.lifetime.start.p0(i64 16, ptr nonnull %11) #9
  %44 = getelementptr inbounds nuw i8, ptr %10, i64 8
  %45 = getelementptr inbounds nuw i8, ptr %11, i64 8
  br label %46

46:                                               ; preds = %55, %40
  %.0.i18 = phi i64 [ 0, %40 ], [ %56, %55 ]
  %47 = getelementptr i8, ptr %15, i64 %.0.i18
  store ptr %47, ptr %10, align 16, !tbaa !29
  %48 = sub i64 8, %.0.i18
  store i64 %48, ptr %44, align 8, !tbaa !32
  %49 = add i64 %43, %.0.i18
  %50 = inttoptr i64 %49 to ptr
  store ptr %50, ptr %11, align 16, !tbaa !29
  store i64 %48, ptr %45, align 8, !tbaa !32
  %51 = call i64 @process_vm_readv(i32 noundef %0, ptr noundef nonnull %10, i64 noundef 1, ptr noundef nonnull %11, i64 noundef 1, i64 noundef 0) #9
  %52 = icmp slt i64 %51, 0
  br i1 %52, label %read_memory.exit21.thread, label %55

read_memory.exit21.thread:                        ; preds = %46
  %53 = load ptr, ptr @PyExc_OSError, align 8, !tbaa !33
  %54 = call ptr @PyErr_SetFromErrno(ptr noundef %53) #9
  call void @llvm.lifetime.end.p0(i64 16, ptr nonnull %11) #9
  call void @llvm.lifetime.end.p0(i64 16, ptr nonnull %10) #9
  br label %103

55:                                               ; preds = %46
  %56 = add i64 %51, %.0.i18
  %57 = load i64, ptr %44, align 8, !tbaa !32
  %.not.i19 = icmp eq i64 %51, %57
  br i1 %.not.i19, label %read_memory.exit21, label %46, !llvm.loop !35

read_memory.exit21:                               ; preds = %55
  call void @llvm.lifetime.end.p0(i64 16, ptr nonnull %11) #9
  call void @llvm.lifetime.end.p0(i64 16, ptr nonnull %10) #9
  %58 = and i64 %56, 2147483648
  %.not16 = icmp eq i64 %58, 0
  br i1 %.not16, label %59, label %103

59:                                               ; preds = %read_memory.exit21
  call void @llvm.lifetime.start.p0(i64 8, ptr nonnull %16) #9
  %60 = load i64, ptr %15, align 8, !tbaa !8
  %61 = icmp eq i64 %60, 0
  br i1 %61, label %read_py_ptr.exit.thread, label %62

62:                                               ; preds = %59
  %63 = getelementptr inbounds nuw i8, ptr %3, i64 56
  %64 = load i64, ptr %63, align 8, !tbaa !73
  %65 = add i64 %64, %60
  call void @llvm.lifetime.start.p0(i64 16, ptr nonnull %8) #9
  call void @llvm.lifetime.start.p0(i64 16, ptr nonnull %9) #9
  %66 = getelementptr inbounds nuw i8, ptr %8, i64 8
  %67 = getelementptr inbounds nuw i8, ptr %9, i64 8
  br label %68

68:                                               ; preds = %77, %62
  %.0.i.i.i = phi i64 [ 0, %62 ], [ %78, %77 ]
  %69 = getelementptr i8, ptr %16, i64 %.0.i.i.i
  store ptr %69, ptr %8, align 16, !tbaa !29
  %70 = sub i64 8, %.0.i.i.i
  store i64 %70, ptr %66, align 8, !tbaa !32
  %71 = add i64 %65, %.0.i.i.i
  %72 = inttoptr i64 %71 to ptr
  store ptr %72, ptr %9, align 16, !tbaa !29
  store i64 %70, ptr %67, align 8, !tbaa !32
  %73 = call i64 @process_vm_readv(i32 noundef %0, ptr noundef nonnull %8, i64 noundef 1, ptr noundef nonnull %9, i64 noundef 1, i64 noundef 0) #9
  %74 = icmp slt i64 %73, 0
  br i1 %74, label %read_ptr.exit.thread.i, label %77

read_ptr.exit.thread.i:                           ; preds = %68
  %75 = load ptr, ptr @PyExc_OSError, align 8, !tbaa !33
  %76 = call ptr @PyErr_SetFromErrno(ptr noundef %75) #9
  call void @llvm.lifetime.end.p0(i64 16, ptr nonnull %9) #9
  call void @llvm.lifetime.end.p0(i64 16, ptr nonnull %8) #9
  br label %read_py_ptr.exit.thread

77:                                               ; preds = %68
  %78 = add i64 %73, %.0.i.i.i
  %79 = load i64, ptr %66, align 8, !tbaa !32
  %.not.i.i.i = icmp eq i64 %73, %79
  br i1 %.not.i.i.i, label %read_ptr.exit.i, label %68, !llvm.loop !35

read_ptr.exit.i:                                  ; preds = %77
  call void @llvm.lifetime.end.p0(i64 16, ptr nonnull %9) #9
  call void @llvm.lifetime.end.p0(i64 16, ptr nonnull %8) #9
  %.mask.i = and i64 %78, 2147483648
  %.not.i22 = icmp eq i64 %.mask.i, 0
  br i1 %.not.i22, label %80, label %read_py_ptr.exit.thread

80:                                               ; preds = %read_ptr.exit.i
  %81 = load i64, ptr %16, align 8, !tbaa !8
  %82 = and i64 %81, -2
  store i64 %82, ptr %16, align 8, !tbaa !8
  %83 = icmp eq i64 %82, 0
  br i1 %83, label %read_py_ptr.exit.thread, label %84

84:                                               ; preds = %80
  %85 = load i64, ptr %15, align 8, !tbaa !8
  %86 = getelementptr inbounds nuw i8, ptr %3, i64 64
  %87 = load i64, ptr %86, align 8, !tbaa !74
  %88 = add i64 %87, %85
  call void @llvm.lifetime.start.p0(i64 16, ptr nonnull %6) #9
  call void @llvm.lifetime.start.p0(i64 16, ptr nonnull %7) #9
  %89 = getelementptr inbounds nuw i8, ptr %6, i64 8
  %90 = getelementptr inbounds nuw i8, ptr %7, i64 8
  br label %91

91:                                               ; preds = %100, %84
  %.0.i.i = phi i64 [ 0, %84 ], [ %101, %100 ]
  %92 = getelementptr i8, ptr %4, i64 %.0.i.i
  store ptr %92, ptr %6, align 16, !tbaa !29
  %93 = sub i64 8, %.0.i.i
  store i64 %93, ptr %89, align 8, !tbaa !32
  %94 = add i64 %88, %.0.i.i
  %95 = inttoptr i64 %94 to ptr
  store ptr %95, ptr %7, align 16, !tbaa !29
  store i64 %93, ptr %90, align 8, !tbaa !32
  %96 = call i64 @process_vm_readv(i32 noundef %0, ptr noundef nonnull %6, i64 noundef 1, ptr noundef nonnull %7, i64 noundef 1, i64 noundef 0) #9
  %.fr32 = freeze i64 %96
  %97 = icmp slt i64 %.fr32, 0
  br i1 %97, label %read_ptr.exit.thread, label %100

read_ptr.exit.thread:                             ; preds = %91
  %98 = load ptr, ptr @PyExc_OSError, align 8, !tbaa !33
  %99 = call ptr @PyErr_SetFromErrno(ptr noundef %98) #9
  call void @llvm.lifetime.end.p0(i64 16, ptr nonnull %7) #9
  call void @llvm.lifetime.end.p0(i64 16, ptr nonnull %6) #9
  br label %read_py_ptr.exit.thread

100:                                              ; preds = %91
  %101 = add i64 %.fr32, %.0.i.i
  %102 = load i64, ptr %89, align 8, !tbaa !32
  %.not.i.i = icmp eq i64 %.fr32, %102
  br i1 %.not.i.i, label %read_ptr.exit, label %91, !llvm.loop !35

read_ptr.exit:                                    ; preds = %100
  call void @llvm.lifetime.end.p0(i64 16, ptr nonnull %7) #9
  call void @llvm.lifetime.end.p0(i64 16, ptr nonnull %6) #9
  %.mask = shl i64 %101, 32
  %sext = ashr i64 %.mask, 63
  %spec.select = trunc nsw i64 %sext to i32
  br label %read_py_ptr.exit.thread

read_py_ptr.exit.thread:                          ; preds = %read_ptr.exit, %read_ptr.exit.thread.i, %read_ptr.exit.i, %read_ptr.exit.thread, %80, %59
  %.2 = phi i32 [ 0, %59 ], [ 0, %80 ], [ -1, %read_ptr.exit.thread ], [ -1, %read_ptr.exit.i ], [ -1, %read_ptr.exit.thread.i ], [ %spec.select, %read_ptr.exit ]
  call void @llvm.lifetime.end.p0(i64 8, ptr nonnull %16) #9
  br label %103

103:                                              ; preds = %read_memory.exit21.thread, %read_memory.exit21, %read_py_ptr.exit.thread
  %.1 = phi i32 [ %.2, %read_py_ptr.exit.thread ], [ -1, %read_memory.exit21 ], [ -1, %read_memory.exit21.thread ]
  call void @llvm.lifetime.end.p0(i64 8, ptr nonnull %15) #9
  br label %104

104:                                              ; preds = %read_memory.exit.thread, %read_memory.exit, %103, %38
  %.0 = phi i32 [ -1, %38 ], [ %.1, %103 ], [ -1, %read_memory.exit ], [ -1, %read_memory.exit.thread ]
  call void @llvm.lifetime.end.p0(i64 8, ptr nonnull %14) #9
  ret i32 %.0
}